target datalayout = "e-m:e-p270:32:32-p271:32:32-p272:64:64-i64:64-i128:128-f80:128-n8:16:32:64-S128"
target triple = "x86_64-pc-linux-gnu"

%"class.net::SpdyFramerVisitorAdapter" = type { %"class.net::SpdyFramerVisitorInterface", ptr, ptr }
%"class.net::SpdyFramerVisitorInterface" = type { ptr }

; Function Attrs: mustprogress uwtable
define void @_ZN3net24SpdyFramerVisitorAdapter11OnSynStreamEjjhbb(ptr noundef nonnull align 8 dereferenceable(24) %0, i32 noundef %1, i32 noundef %2, i8 noundef zeroext %3, i1 noundef zeroext %4, i1 noundef zeroext %5) unnamed_addr #2 align 2 {
  %7 = alloca ptr, align 8
  %8 = alloca i32, align 4
  %9 = alloca i32, align 4
  %10 = alloca i8, align 1
  %11 = alloca i8, align 1
  %12 = alloca i8, align 1
  store ptr %0, ptr %7, align 8, !tbaa !22
  store i32 %1, ptr %8, align 4, !tbaa !30
  store i32 %2, ptr %9, align 4, !tbaa !30
  store i8 %3, ptr %10, align 1, !tbaa !36
  %13 = zext i1 %4 to i8
  store i8 %13, ptr %11, align 1, !tbaa !19
  %14 = zext i1 %5 to i8
  store i8 %14, ptr %12, align 1, !tbaa !19
  %15 = load ptr, ptr %7, align 8
  %16 = getelementptr inbounds nuw %"class.net::SpdyFramerVisitorAdapter", ptr %15, i32 0, i32 1
  %17 = load ptr, ptr %16, align 8, !tbaa !26
  %18 = load i32, ptr %8, align 4, !tbaa !30
  %19 = load i32, ptr %9, align 4, !tbaa !30
  %20 = load i8, ptr %10, align 1, !tbaa !36
  %21 = load i8, ptr %11, align 1, !tbaa !19, !range !20, !noundef !21
  %22 = trunc i8 %21 to i1
  %23 = load i8, ptr %12, align 1, !tbaa !19, !range !20, !noundef !21
  %24 = trunc i8 %23 to i1
  %25 = load ptr, ptr %17, align 8, !tbaa !8
  %26 = getelementptr inbounds ptr, ptr %25, i64 11
  %27 = load ptr, ptr %26, align 8
  call void %27(ptr noundef nonnull align 8 dereferenceable(8) %17, i32 noundef %18, i32 noundef %19, i8 noundef zeroext %20, i1 noundef zeroext %22, i1 noundef zeroext %24)
  ret void
}