; Function Attrs: mustprogress uwtable
define void @_ZN3net24SpdyFramerVisitorAdapter11OnSynStreamEjjhbb(ptr noundef nonnull readonly align 8 captures(none) dereferenceable(24) %0, i32 noundef %1, i32 noundef %2, i8 noundef zeroext %3, i1 noundef zeroext %4, i1 noundef zeroext %5) unnamed_addr #3 align 2 {
  %7 = getelementptr inbounds nuw i8, ptr %0, i64 8
  %8 = load ptr, ptr %7, align 8, !tbaa !15
  %9 = load ptr, ptr %8, align 8, !tbaa !3
  %10 = getelementptr inbounds nuw i8, ptr %9, i64 88
  %11 = load ptr, ptr %10, align 8
  tail call void %11(ptr noundef nonnull align 8 dereferenceable(8) %8, i32 noundef %1, i32 noundef %2, i8 noundef zeroext %3, i1 noundef zeroext %4, i1 noundef zeroext %5)
  ret void
}